-----BEGIN CERTIFICATE-----
MIIDUzCCArygAwIBAgIBQTANBgkqhkiG9w0BAQsFADBZMQswCQYDVQQGEwJVUzET
MBEGA1UECAwKU29tZS1TdGF0ZTEWMBQGA1UECgwNR2VvVHJ1c3QgSW5jLjEdMBsG
A1UEAwwUR2VvVHJ1c3QgU1NMIENBIC0gRzMwHhcNMTYwMzA3MDg1MjQ5WhcNMTcw
MzA3MDg1MjQ5WjCBhDELMAkGA1UEBhMCQ04xEDAOBgNVBAgMB0JlaWppbmcxMTAv
BgNVBAoMKEJlaWppbmcgSmluZ2RvbmcgQ2VudHVyeSBUcmFkaW5nIENvLixMdGQx
HTAbBgNVBAsMFE9wZXJhdGlvbiBEZXBhcnRtZW50MREwDwYDVQQDDAgqLmpkLmNv
bTCCASIwDQYJKoZIhvcNAQEBBQADggEPADCCAQoCggEBAMSdLVoBDIsqnnyAfBAA
x6JdBlCXmix4qSP9FwLF/1XhzyqatoLwoc0rcQD1Lfmur6oCDUlyy1uIM2ruhoLK
tu0zK/2DKMM+eTx3OjyLFht9Es/WAYPxTmH/PYJXahJwQSMj5y/N+2GHJW0gd/tE
TIhcoZEVCCUTZsJtgG36TtBtyVqzGoKEYRSWMRyH3d5vCgkkv9VZA/l8NWos4l5s
y+RU+r8wsGKNMPg1Pnujt5eE1ikv/ycdauXN1monyAA4mYv+kjMiHbB6xQ+T7yK7
FLSfE+xaZAZ4xutotjpzavDqkrmGlmwN22LA1s3WvYcFiKH5PQjzCD8t6uIceCBj
LXMCAwEAAaN7MHkwCQYDVR0TBAIwADAsBglghkgBhvhCAQ0EHxYdT3BlblNTTCBH
ZW5lcmF0ZWQgQ2VydGlmaWNhdGUwHQYDVR0OBBYEFKqZNa8/VJ9vOILYfKlTQc/n
2KQIMB8GA1UdIwQYMBaAFCruAXbEYnJ6m0M0feV3qgA8niOWMA0GCSqGSIb3DQEB
CwUAA4GBAI5VOR4EclBkNkTHduGupMwW5erC04TJ/SL8YQuxqouB/Rt0UPZxm052
TzEajoryD6x1/T+yN5ACr6k10Tvp8RKc1J5q6KbJm2Xb2GdDuv8o4g6bgeHw7q5q
XFj+wRVNX0nS3MSm1VxsnwFQYf2gYrtiy6OF2crhuQvsveIKXTP+
-----END CERTIFICATE-----
-----BEGIN CERTIFICATE-----
MIIDJTCCAg2gAwIBAgIBAjANBgkqhkiG9w0BAQsFADBXMQswCQYDVQQGEwJVUzET
MBEGA1UECAwKU29tZS1TdGF0ZTEWMBQGA1UECgwNR2VvVHJ1c3QgSW5jLjEbMBkG
A1UEAwwSR2VvVHJ1c3QgR2xvYmFsIENBMB4XDTE2MDMwNzA4MzIwMVoXDTE3MDMw
NzA4MzIwMVowWTELMAkGA1UEBhMCVVMxEzARBgNVBAgMClNvbWUtU3RhdGUxFjAU
BgNVBAoMDUdlb1RydXN0IEluYy4xHTAbBgNVBAMMFEdlb1RydXN0IFNTTCBDQSAt
IEczMIGfMA0GCSqGSIb3DQEBAQUAA4GNADCBiQKBgQDbMNem1uJHLiORvlzDw+h2
kn1w2s6kZpEGkZg0Rm4z/zpR0qH4gtCojTC8MPpUD/+bDzyJO+vaU2aXXacTRiNM
wjSdMszB6APJyKF+BFcPj9Neb+i0MCm8ULRIensUlSD9y/qzzu0TBMOQAQLTk3Qq
j2zONz2pMLd4ZiCawNQwLQIDAQABo34wfDAMBgNVHRMEBTADAQH/MCwGCWCGSAGG
+EIBDQQfFh1PcGVuU1NMIEdlbmVyYXRlZCBDZXJ0aWZpY2F0ZTAdBgNVHQ4EFgQU
Ku4BdsRicnqbQzR95XeqADyeI5YwHwYDVR0jBBgwFoAUTwCHRQsVndDvlU4UGwJ6
MfKbX1AwDQYJKoZIhvcNAQELBQADggEBADlCrbs15wMPKz9GVRSwiFUx0iRTlAEw
SI1WwBYKIPxoFYYah7BetWvr7LxabxXw0FB0MjQCRfW2uZeIoaS211EZ52frYrRW
J2M2VG/i6eFqKFhBdJ9zUwkSbtgaSrt0SXg5DuRK9Rt7Xb/JDm+QksBUEnadgr3C
mR6O8kbhtx5S45MgRJ86zTQoUwAw2X4Sf8T4eFC5Gwzrhkx5IjcxhNKjsgDOfPiR
UwL8hvRoYSkHAA+EKgTcSEogzqqVCPfWsf9vbOqx8KQYrBJo0SJnS6sF/cIaY19+
hE0bHllYW+4ciCC10PusT+5UC0C2gEg7aECew1IFqvvpS4/W1hPIGAo=
-----END CERTIFICATE-----
Certificate:
    Data:
        Version: 3 (0x2)
        Serial Number: 18 (0x12)
    Signature Algorithm: sha256WithRSAEncryption
        Issuer: C=US, ST=Some-State, O=GeoTrust Inc., CN=GeoTrust Global CA
        Validity
            Not Before: Mar  7 07:31:51 2016 GMT
            Not After : Mar  7 07:31:51 2017 GMT
        Subject: C=US, ST=Some-State, O=GeoTrust Inc., CN=GeoTrust Global CA
        Subject Public Key Info:
            Public Key Algorithm: rsaEncryption
                Public-Key: (2048 bit)
                Modulus:
                    00:bf:72:ad:97:b4:1c:00:7f:e2:ef:9e:c4:92:0e:
                    29:50:c1:76:69:82:a7:11:15:2e:b8:9b:67:48:35:
                    d4:0c:65:0b:26:0c:df:99:7a:cb:54:a3:2d:d7:b1:
                    7e:eb:a8:59:1f:7c:6a:a9:fd:e0:65:6c:24:9f:b9:
                    54:ea:e1:9b:da:b0:6c:a7:c3:21:a2:51:b9:de:fa:
                    e2:5f:35:d2:18:e7:ba:c0:93:a8:71:05:89:76:32:
                    8c:43:f2:22:a8:03:01:f5:71:78:75:07:a0:6b:9d:
                    cd:be:39:3a:4f:9f:6b:a6:ae:62:0c:67:8f:1c:16:
                    ef:34:0d:0c:f3:d8:46:31:dd:41:0d:ac:0b:b8:06:
                    bf:37:a2:ac:f3:7f:24:20:ee:e0:1b:86:48:37:f0:
                    ec:13:21:34:9c:94:57:08:16:26:b3:08:c8:24:5f:
                    eb:55:d3:43:d7:de:a9:ec:c3:2d:92:ea:2b:16:a3:
                    bc:7c:37:e3:55:39:f4:1d:e6:93:7c:d4:3c:de:f6:
                    5e:64:29:4c:26:3f:9f:06:08:a8:25:b1:e2:f0:77:
                    44:a7:7d:b1:4d:97:1d:20:89:10:25:17:6b:ff:1f:
                    8f:b2:8c:eb:6f:06:37:f9:9e:8c:0d:13:fc:04:43:
                    ce:db:64:14:e6:ad:f8:c0:9f:da:31:14:1b:f6:c8:
                    42:17
                Exponent: 65537 (0x10001)
        X509v3 extensions:
            X509v3 Basic Constraints: 
                CA:TRUE
            Netscape Comment: 
                OpenSSL Generated Certificate
            X509v3 Subject Key Identifier: 
                4F:00:87:45:0B:15:9D:D0:EF:95:4E:14:1B:02:7A:31:F2:9B:5F:50
            X509v3 Authority Key Identifier: 
                keyid:4F:00:87:45:0B:15:9D:D0:EF:95:4E:14:1B:02:7A:31:F2:9B:5F:50

    Signature Algorithm: sha256WithRSAEncryption
         93:76:73:e0:4a:82:80:44:6f:27:18:19:f3:85:a4:ca:c7:72:
         df:d3:a8:c9:92:e7:55:64:09:1f:ee:c2:aa:1e:04:dd:bc:c1:
         12:ae:ee:f8:ec:13:d2:b6:74:08:e5:c5:e2:d0:11:24:57:80:
         fb:36:7d:c5:fe:37:6a:63:80:3e:82:9c:cb:0a:84:64:c1:5a:
         91:7e:ba:63:f1:51:01:e1:9d:20:47:b1:79:76:7d:ca:91:a2:
         e2:19:c1:27:9b:d7:4c:d0:b1:76:04:e2:32:15:8f:0f:d4:d1:
         e3:74:48:c4:ce:f6:68:df:32:5f:f1:02:ac:da:d9:e2:a0:8c:
         5b:04:0f:42:b5:bb:22:38:71:87:c0:ba:9f:c8:91:d5:c5:2e:
         1a:54:2f:50:2d:10:c0:4a:c3:f0:8d:d5:a9:27:f3:b5:77:1f:
         ce:74:80:96:d9:8f:73:d2:c2:5c:7a:45:33:a6:00:50:7a:40:
         a1:39:50:b1:2b:de:7c:55:59:11:fb:1e:26:d0:5e:a0:a2:0c:
         95:32:42:e5:1c:ca:4a:0a:35:d6:41:9f:f7:79:6e:f9:f8:65:
         1d:a5:cb:44:74:2b:3e:93:b1:f4:2f:5a:8c:21:36:db:76:10:
         b4:90:b8:bf:56:f5:d6:14:e2:5a:62:a0:ce:37:f7:ff:e9:ef:
         38:cf:74:7c
-----BEGIN CERTIFICATE-----
MIIDpzCCAo+gAwIBAgIBEjANBgkqhkiG9w0BAQsFADBXMQswCQYDVQQGEwJVUzET
MBEGA1UECAwKU29tZS1TdGF0ZTEWMBQGA1UECgwNR2VvVHJ1c3QgSW5jLjEbMBkG
A1UEAwwSR2VvVHJ1c3QgR2xvYmFsIENBMB4XDTE2MDMwNzA3MzE1MVoXDTE3MDMw
NzA3MzE1MVowVzELMAkGA1UEBhMCVVMxEzARBgNVBAgMClNvbWUtU3RhdGUxFjAU
BgNVBAoMDUdlb1RydXN0IEluYy4xGzAZBgNVBAMMEkdlb1RydXN0IEdsb2JhbCBD
QTCCASIwDQYJKoZIhvcNAQEBBQADggEPADCCAQoCggEBAL9yrZe0HAB/4u+exJIO
KVDBdmmCpxEVLribZ0g11AxlCyYM35l6y1SjLdexfuuoWR98aqn94GVsJJ+5VOrh
m9qwbKfDIaJRud764l810hjnusCTqHEFiXYyjEPyIqgDAfVxeHUHoGudzb45Ok+f
a6auYgxnjxwW7zQNDPPYRjHdQQ2sC7gGvzeirPN/JCDu4BuGSDfw7BMhNJyUVwgW
JrMIyCRf61XTQ9feqezDLZLqKxajvHw341U59B3mk3zUPN72XmQpTCY/nwYIqCWx
4vB3RKd9sU2XHSCJECUXa/8fj7KM628GN/mejA0T/ARDzttkFOat+MCf2jEUG/bI
QhcCAwEAAaN+MHwwDAYDVR0TBAUwAwEB/zAsBglghkgBhvhCAQ0EHxYdT3BlblNT
TCBHZW5lcmF0ZWQgQ2VydGlmaWNhdGUwHQYDVR0OBBYEFE8Ah0ULFZ3Q75VOFBsC
ejHym19QMB8GA1UdIwQYMBaAFE8Ah0ULFZ3Q75VOFBsCejHym19QMA0GCSqGSIb3
DQEBCwUAA4IBAQCTdnPgSoKARG8nGBnzhaTKx3Lf06jJkudVZAkf7sKqHgTdvMES
ru747BPStnQI5cXi0BEkV4D7Nn3F/jdqY4A+gpzLCoRkwVqRfrpj8VEB4Z0gR7F5
dn3KkaLiGcEnm9dM0LF2BOIyFY8P1NHjdEjEzvZo3zJf8QKs2tnioIxbBA9Ctbsi
OHGHwLqfyJHVxS4aVC9QLRDASsPwjdWpJ/O1dx/OdICW2Y9z0sJcekUzpgBQekCh
OVCxK958VVkR+x4m0F6gogyVMkLlHMpKCjXWQZ/3eW75+GUdpctEdCs+k7H0L1qM
ITbbdhC0kLi/VvXWFOJaYqDON/f/6e84z3R8
-----END CERTIFICATE-----
